target datalayout = "e-m:e-p270:32:32-p271:32:32-p272:64:64-i64:64-i128:128-f80:128-n8:16:32:64-S128"
target triple = "x86_64-pc-linux-gnu"

; Function Attrs: mustprogress nounwind uwtable
define linkonce_odr hidden noundef double @_ZNSt14numeric_limitsIdE8infinityEv() #5 comdat align 2 {
  ret double 0x7FF0000000000000
}

; Function Attrs: mustprogress nounwind uwtable
define noundef double @_ZN6casadi17nlpsol_default_inEx(i64 noundef %0) #5 {
  %2 = alloca double, align 8
  %3 = alloca i64, align 8
  store i64 %0, ptr %3, align 8
  %4 = load i64, ptr %3, align 8
  switch i64 %4, label %10 [
    i64 2, label %5
    i64 4, label %5
    i64 3, label %8
    i64 5, label %8
  ]

5:                                                ; preds = %1, %1
  %6 = call noundef double @_ZNSt14numeric_limitsIdE8infinityEv() #3
  %7 = fneg double %6
  store double %7, ptr %2, align 8
  br label %11

8:                                                ; preds = %1, %1
  %9 = call noundef double @_ZNSt14numeric_limitsIdE8infinityEv() #3
  store double %9, ptr %2, align 8
  br label %11

10:                                               ; preds = %1
  store double 0.000000e+00, ptr %2, align 8
  br label %11

11:                                               ; preds = %10, %8, %5
  %12 = load double, ptr %2, align 8
  ret double %12
}