; Function Attrs: mustprogress nofree norecurse nosync nounwind willreturn memory(none) uwtable
define noundef double @_ZN6casadi17nlpsol_default_inEx(i64 noundef %0) local_unnamed_addr #6 {
  %switch.tableidx = add i64 %0, -2
  %2 = icmp ult i64 %switch.tableidx, 4
  br i1 %2, label %switch.lookup, label %3

switch.lookup:                                    ; preds = %1
  %switch.gep = getelementptr inbounds [4 x double], ptr @switch.table._ZNK6casadi6Nlpsol14get_default_inEx, i64 0, i64 %switch.tableidx
  %switch.load = load double, ptr %switch.gep, align 8
  br label %3

3:                                                ; preds = %switch.lookup, %1
  %.0 = phi double [ 0.000000e+00, %1 ], [ %switch.load, %switch.lookup ]
  ret double %.0
}